target datalayout = "e-m:e-p270:32:32-p271:32:32-p272:64:64-i64:64-i128:128-f80:128-n8:16:32:64-S128"
target triple = "x86_64-pc-linux-gnu"

%class.Node.base = type <{ ptr, ptr, ptr, i32, i32, i32, i32, i32, i32, i32 }>
%class.ShenandoahLoadReferenceBarrierNode = type { %class.Node.base, i64 }

; Function Attrs: mustprogress nounwind uwtable
define internal noundef i64 @_ZL15mask_decoratorsm(i64 noundef %0) #1 {
  %2 = alloca i64, align 8
  store i64 %0, ptr %2, align 8
  %3 = load i64, ptr %2, align 8
  %4 = and i64 %3, 770048
  ret i64 %4
}

; Function Attrs: mustprogress nounwind uwtable
define hidden noundef zeroext i1 @_ZNK34ShenandoahLoadReferenceBarrierNode3cmpERK4Node(ptr noundef nonnull align 8 dereferenceable(64) %0, ptr noundef nonnull align 8 dereferenceable(52) %1) unnamed_addr #1 align 2 {
  %3 = alloca ptr, align 8
  %4 = alloca ptr, align 8
  store ptr %0, ptr %3, align 8
  store ptr %1, ptr %4, align 8
  %5 = load ptr, ptr %3, align 8
  %6 = load ptr, ptr %4, align 8
  %7 = call noundef zeroext i1 @_ZNK4Node3cmpERKS_(ptr noundef nonnull align 8 dereferenceable(52) %5, ptr noundef nonnull align 8 dereferenceable(52) %6)
  br i1 %7, label %8, label %24

8:                                                ; preds = %2
  %9 = load ptr, ptr %4, align 8
  %10 = load ptr, ptr %9, align 8
  %11 = getelementptr inbounds ptr, ptr %10, i64 0
  %12 = load ptr, ptr %11, align 8
  %13 = call noundef i32 %12(ptr noundef nonnull align 8 dereferenceable(52) %9)
  %14 = icmp eq i32 %13, 310
  br i1 %14, label %15, label %24

15:                                               ; preds = %8
  %16 = getelementptr inbounds %class.ShenandoahLoadReferenceBarrierNode, ptr %5, i32 0, i32 1
  %17 = load i64, ptr %16, align 8
  %18 = call noundef i64 @_ZL15mask_decoratorsm(i64 noundef %17)
  %19 = load ptr, ptr %4, align 8
  %20 = getelementptr inbounds %class.ShenandoahLoadReferenceBarrierNode, ptr %19, i32 0, i32 1
  %21 = load i64, ptr %20, align 8
  %22 = call noundef i64 @_ZL15mask_decoratorsm(i64 noundef %21)
  %23 = icmp eq i64 %18, %22
  br label %24

24:                                               ; preds = %15, %8, %2
  %25 = phi i1 [ false, %8 ], [ false, %2 ], [ %23, %15 ]
  ret i1 %25
}