; Function Attrs: mustprogress nounwind uwtable
define hidden noundef zeroext i1 @_ZNK34ShenandoahLoadReferenceBarrierNode3cmpERK4Node(ptr noundef nonnull align 8 dereferenceable(64) %0, ptr noundef nonnull align 8 dereferenceable(52) %1) unnamed_addr #0 align 2 {
  %3 = tail call noundef zeroext i1 @_ZNK4Node3cmpERKS_(ptr noundef nonnull align 8 dereferenceable(52) %0, ptr noundef nonnull align 8 dereferenceable(52) %1) #10
  br i1 %3, label %4, label %17

4:                                                ; preds = %2
  %5 = load ptr, ptr %1, align 8
  %6 = load ptr, ptr %5, align 8
  %7 = tail call noundef i32 %6(ptr noundef nonnull align 8 dereferenceable(52) %1) #10
  %8 = icmp eq i32 %7, 310
  br i1 %8, label %9, label %17

9:                                                ; preds = %4
  %10 = getelementptr inbounds i8, ptr %0, i64 56
  %11 = load i64, ptr %10, align 8
  %12 = getelementptr inbounds i8, ptr %1, i64 56
  %13 = load i64, ptr %12, align 8
  %14 = xor i64 %13, %11
  %15 = and i64 %14, 770048
  %16 = icmp eq i64 %15, 0
  br label %17

17:                                               ; preds = %9, %4, %2
  %18 = phi i1 [ false, %4 ], [ false, %2 ], [ %16, %9 ]
  ret i1 %18
}